; Function Attrs: mustprogress nofree norecurse nosync nounwind willreturn memory(read, argmem: readwrite, inaccessiblemem: none) uwtable
define internal void @_ZZL31ShowExampleAppConstrainedResizePbEN17CustomConstraints4StepEP21ImGuiSizeCallbackData(ptr noundef captures(none) %0) #29 align 2 {
  %2 = load ptr, ptr %0, align 8, !tbaa !547
  %3 = load float, ptr %2, align 4, !tbaa !53
  %4 = getelementptr inbounds nuw i8, ptr %0, i64 24
  %5 = load float, ptr %4, align 8, !tbaa !549
  %6 = fdiv float %5, %3
  %7 = fadd float %6, 5.000000e-01
  %8 = fptosi float %7 to i32
  %9 = sitofp i32 %8 to float
  %10 = fmul float %3, %9
  %11 = getelementptr inbounds nuw i8, ptr %0, i64 28
  %12 = load float, ptr %11, align 4, !tbaa !550
  %13 = fdiv float %12, %3
  %14 = fadd float %13, 5.000000e-01
  %15 = fptosi float %14 to i32
  %16 = sitofp i32 %15 to float
  %17 = fmul float %3, %16
  store float %10, ptr %4, align 8
  store float %17, ptr %11, align 4
  ret void
}